target datalayout = "e-m:e-p270:32:32-p271:32:32-p272:64:64-i64:64-i128:128-f80:128-n8:16:32:64-S128"
target triple = "x86_64-unknown-linux-gnu"

%"class.std::__cxx11::basic_string" = type { %"struct.std::__cxx11::basic_string<char>::_Alloc_hider", i64, %union.anon }
%"struct.std::__cxx11::basic_string<char>::_Alloc_hider" = type { ptr }
%union.anon = type { i64, [8 x i8] }
%"class.absl::Mutex" = type { %"struct.std::atomic" }
%"struct.std::atomic" = type { %"struct.std::__atomic_base" }
%"struct.std::__atomic_base" = type { i64 }
%"class.(anonymous namespace)::ScopedDisableBazelTestWarnings" = type { %"class.std::__cxx11::basic_string" }

@_ZN12_GLOBAL__N_130ScopedDisableBazelTestWarnings8kVarNameE = internal constant [26 x i8] c"TEST_WARNINGS_OUTPUT_FILE\00", align 16

; Function Attrs: mustprogress nounwind uwtable
define linkonce_odr dso_local void @_ZNSt13__atomic_baseIlEC2El(ptr noundef nonnull align 8 dereferenceable(8) %this, i64 noundef %__i) unnamed_addr #7 comdat align 2 {
entry:
  %this.addr = alloca ptr, align 8
  %__i.addr = alloca i64, align 8
  store ptr %this, ptr %this.addr, align 8
  store i64 %__i, ptr %__i.addr, align 8
  %this1 = load ptr, ptr %this.addr, align 8
  %_M_i = getelementptr inbounds %"struct.std::__atomic_base", ptr %this1, i32 0, i32 0
  %0 = load i64, ptr %__i.addr, align 8
  store i64 %0, ptr %_M_i, align 8
  ret void
}

; Function Attrs: mustprogress nounwind uwtable
define linkonce_odr dso_local void @_ZNSt6atomicIlEC2El(ptr noundef nonnull align 8 dereferenceable(8) %this, i64 noundef %__i) unnamed_addr #7 comdat align 2 {
entry:
  %this.addr = alloca ptr, align 8
  %__i.addr = alloca i64, align 8
  store ptr %this, ptr %this.addr, align 8
  store i64 %__i, ptr %__i.addr, align 8
  %this1 = load ptr, ptr %this.addr, align 8
  %0 = load i64, ptr %__i.addr, align 8
  call void @_ZNSt13__atomic_baseIlEC2El(ptr noundef nonnull align 8 dereferenceable(8) %this1, i64 noundef %0) #3
  ret void
}

; Function Attrs: noreturn nounwind uwtable
define linkonce_odr hidden void @__clang_call_terminate(ptr noundef %0) #9 comdat {
  %2 = call ptr @__cxa_begin_catch(ptr %0) #3
  call void @_ZSt9terminatev() #27
  unreachable
}

; Function Attrs: mustprogress nounwind uwtable
define linkonce_odr dso_local void @_ZN4absl5MutexC2Ev(ptr noundef nonnull align 8 dereferenceable(8) %this) unnamed_addr #7 comdat align 2 {
entry:
  %this.addr = alloca ptr, align 8
  store ptr %this, ptr %this.addr, align 8
  %this1 = load ptr, ptr %this.addr, align 8
  %mu_ = getelementptr inbounds %"class.absl::Mutex", ptr %this1, i32 0, i32 0
  call void @_ZNSt6atomicIlEC2El(ptr noundef nonnull align 8 dereferenceable(8) %mu_, i64 noundef 0) #3
  ret void
}

; Function Attrs: mustprogress uwtable
define internal void @_ZN12_GLOBAL__N_130ScopedDisableBazelTestWarningsC2Ev(ptr noundef nonnull align 8 dereferenceable(32) %this) unnamed_addr #4 align 2 personality ptr @__gxx_personality_v0 {
entry:
  %this.addr = alloca ptr, align 8
  %file = alloca ptr, align 8
  %exn.slot = alloca ptr, align 8
  %ehselector.slot = alloca i32, align 4
  store ptr %this, ptr %this.addr, align 8
  %this1 = load ptr, ptr %this.addr, align 8
  %warnings_output_file_ = getelementptr inbounds %"class.(anonymous namespace)::ScopedDisableBazelTestWarnings", ptr %this1, i32 0, i32 0
  call void @_ZNSt7__cxx1112basic_stringIcSt11char_traitsIcESaIcEEC1Ev(ptr noundef nonnull align 8 dereferenceable(32) %warnings_output_file_) #3
  %call = call ptr @getenv(ptr noundef @_ZN12_GLOBAL__N_130ScopedDisableBazelTestWarnings8kVarNameE) #3
  store ptr %call, ptr %file, align 8
  %0 = load ptr, ptr %file, align 8
  %cmp = icmp ne ptr %0, null
  br i1 %cmp, label %if.then, label %if.end

if.then:                                          ; preds = %entry
  %1 = load ptr, ptr %file, align 8
  %warnings_output_file_2 = getelementptr inbounds %"class.(anonymous namespace)::ScopedDisableBazelTestWarnings", ptr %this1, i32 0, i32 0
  %call3 = invoke noundef nonnull align 8 dereferenceable(32) ptr @_ZNSt7__cxx1112basic_stringIcSt11char_traitsIcESaIcEEaSEPKc(ptr noundef nonnull align 8 dereferenceable(32) %warnings_output_file_2, ptr noundef %1)
          to label %invoke.cont unwind label %lpad

invoke.cont:                                      ; preds = %if.then
  %call4 = call i32 @unsetenv(ptr noundef @_ZN12_GLOBAL__N_130ScopedDisableBazelTestWarnings8kVarNameE) #3
  br label %if.end

lpad:                                             ; preds = %if.then
  %2 = landingpad { ptr, i32 }
          cleanup
  %3 = extractvalue { ptr, i32 } %2, 0
  store ptr %3, ptr %exn.slot, align 8
  %4 = extractvalue { ptr, i32 } %2, 1
  store i32 %4, ptr %ehselector.slot, align 4
  call void @_ZNSt7__cxx1112basic_stringIcSt11char_traitsIcESaIcEED1Ev(ptr noundef nonnull align 8 dereferenceable(32) %warnings_output_file_) #3
  br label %eh.resume

if.end:                                           ; preds = %invoke.cont, %entry
  ret void

eh.resume:                                        ; preds = %lpad
  %exn = load ptr, ptr %exn.slot, align 8
  %sel = load i32, ptr %ehselector.slot, align 4
  %lpad.val = insertvalue { ptr, i32 } poison, ptr %exn, 0
  %lpad.val5 = insertvalue { ptr, i32 } %lpad.val, i32 %sel, 1
  resume { ptr, i32 } %lpad.val5
}

; Function Attrs: mustprogress uwtable
define internal void @_ZN12_GLOBAL__N_139Mutex_DeadlockDetectorBazelWarning_Test8TestBodyEv(ptr noundef nonnull align 8 dereferenceable(16) %this) unnamed_addr #4 align 2 personality ptr @__gxx_personality_v0 {
entry:
  %this.addr.i37 = alloca ptr, align 8
  %this.addr.i35 = alloca ptr, align 8
  %this.addr.i33 = alloca ptr, align 8
  %this.addr.i31 = alloca ptr, align 8
  %this.addr.i27 = alloca ptr, align 8
  %this.addr.i23 = alloca ptr, align 8
  %this.addr.i19 = alloca ptr, align 8
  %this.addr.i = alloca ptr, align 8
  %this.addr = alloca ptr, align 8
  %disable_bazel_test_warnings = alloca %"class.(anonymous namespace)::ScopedDisableBazelTestWarnings", align 8
  %mu0 = alloca %"class.absl::Mutex", align 8
  %exn.slot = alloca ptr, align 8
  %ehselector.slot = alloca i32, align 4
  %mu1 = alloca %"class.absl::Mutex", align 8
  %got_mu0 = alloca i8, align 1
  store ptr %this, ptr %this.addr, align 8
  call void @_ZN4absl29SetMutexDeadlockDetectionModeENS_15OnDeadlockCycleE(i32 noundef 1)
  call void @_ZN12_GLOBAL__N_130ScopedDisableBazelTestWarningsC2Ev(ptr noundef nonnull align 8 dereferenceable(32) %disable_bazel_test_warnings)
  invoke void @_ZN4absl5MutexC2Ev(ptr noundef nonnull align 8 dereferenceable(8) %mu0)
          to label %invoke.cont unwind label %lpad

invoke.cont:                                      ; preds = %entry
  invoke void @_ZN4absl5MutexC2Ev(ptr noundef nonnull align 8 dereferenceable(8) %mu1)
          to label %invoke.cont3 unwind label %lpad2

invoke.cont3:                                     ; preds = %invoke.cont
  %call = invoke noundef zeroext i1 @_ZN4absl5Mutex7TryLockEv(ptr noundef nonnull align 8 dereferenceable(8) %mu0)
          to label %invoke.cont5 unwind label %lpad4

invoke.cont5:                                     ; preds = %invoke.cont3
  %frombool = zext i1 %call to i8
  store i8 %frombool, ptr %got_mu0, align 1
  invoke void @_ZN4absl5Mutex4LockEv(ptr noundef nonnull align 8 dereferenceable(8) %mu1)
          to label %invoke.cont6 unwind label %lpad4

invoke.cont6:                                     ; preds = %invoke.cont5
  %0 = load i8, ptr %got_mu0, align 1
  %tobool = trunc i8 %0 to i1
  br i1 %tobool, label %if.then, label %if.end

if.then:                                          ; preds = %invoke.cont6
  invoke void @_ZN4absl5Mutex6UnlockEv(ptr noundef nonnull align 8 dereferenceable(8) %mu0)
          to label %invoke.cont7 unwind label %lpad4

invoke.cont7:                                     ; preds = %if.then
  br label %if.end

lpad:                                             ; preds = %entry
  %1 = landingpad { ptr, i32 }
          cleanup
  %2 = extractvalue { ptr, i32 } %1, 0
  store ptr %2, ptr %exn.slot, align 8
  %3 = extractvalue { ptr, i32 } %1, 1
  store i32 %3, ptr %ehselector.slot, align 4
  br label %ehcleanup17

lpad2:                                            ; preds = %invoke.cont
  %4 = landingpad { ptr, i32 }
          cleanup
  %5 = extractvalue { ptr, i32 } %4, 0
  store ptr %5, ptr %exn.slot, align 8
  %6 = extractvalue { ptr, i32 } %4, 1
  store i32 %6, ptr %ehselector.slot, align 4
  br label %ehcleanup

lpad4:                                            ; preds = %invoke.cont15, %invoke.cont14, %invoke.cont13, %if.end12, %if.then10, %if.end, %if.then, %invoke.cont5, %invoke.cont3
  %7 = landingpad { ptr, i32 }
          cleanup
  %8 = extractvalue { ptr, i32 } %7, 0
  store ptr %8, ptr %exn.slot, align 8
  %9 = extractvalue { ptr, i32 } %7, 1
  store i32 %9, ptr %ehselector.slot, align 4
  store ptr %mu1, ptr %this.addr.i19, align 8
  %this1.i20 = load ptr, ptr %this.addr.i19, align 8
  store ptr %this1.i20, ptr %this.addr.i35, align 8
  br label %_ZN4absl5MutexD2Ev.exit22

terminate.lpad.i21:                               ; No predecessors!
  %10 = landingpad { ptr, i32 }
          catch ptr null
  %11 = extractvalue { ptr, i32 } %10, 0
  call void @__clang_call_terminate(ptr %11) #27
  unreachable

_ZN4absl5MutexD2Ev.exit22:                        ; preds = %lpad4
  br label %ehcleanup

if.end:                                           ; preds = %invoke.cont7, %invoke.cont6
  %call9 = invoke noundef zeroext i1 @_ZN4absl5Mutex7TryLockEv(ptr noundef nonnull align 8 dereferenceable(8) %mu0)
          to label %invoke.cont8 unwind label %lpad4

invoke.cont8:                                     ; preds = %if.end
  br i1 %call9, label %if.then10, label %if.end12

if.then10:                                        ; preds = %invoke.cont8
  invoke void @_ZN4absl5Mutex6UnlockEv(ptr noundef nonnull align 8 dereferenceable(8) %mu0)
          to label %invoke.cont11 unwind label %lpad4

invoke.cont11:                                    ; preds = %if.then10
  br label %if.end12

if.end12:                                         ; preds = %invoke.cont11, %invoke.cont8
  invoke void @_ZN4absl5Mutex4LockEv(ptr noundef nonnull align 8 dereferenceable(8) %mu0)
          to label %invoke.cont13 unwind label %lpad4

invoke.cont13:                                    ; preds = %if.end12
  invoke void @_ZN4absl5Mutex6UnlockEv(ptr noundef nonnull align 8 dereferenceable(8) %mu0)
          to label %invoke.cont14 unwind label %lpad4

invoke.cont14:                                    ; preds = %invoke.cont13
  invoke void @_ZN4absl5Mutex6UnlockEv(ptr noundef nonnull align 8 dereferenceable(8) %mu1)
          to label %invoke.cont15 unwind label %lpad4

invoke.cont15:                                    ; preds = %invoke.cont14
  invoke void @_ZN4absl29SetMutexDeadlockDetectionModeENS_15OnDeadlockCycleE(i32 noundef 2)
          to label %invoke.cont16 unwind label %lpad4

invoke.cont16:                                    ; preds = %invoke.cont15
  store ptr %mu1, ptr %this.addr.i, align 8
  %this1.i = load ptr, ptr %this.addr.i, align 8
  store ptr %this1.i, ptr %this.addr.i37, align 8
  br label %_ZN4absl5MutexD2Ev.exit

terminate.lpad.i:                                 ; No predecessors!
  %12 = landingpad { ptr, i32 }
          catch ptr null
  %13 = extractvalue { ptr, i32 } %12, 0
  call void @__clang_call_terminate(ptr %13) #27
  unreachable

_ZN4absl5MutexD2Ev.exit:                          ; preds = %invoke.cont16
  store ptr %mu0, ptr %this.addr.i23, align 8
  %this1.i24 = load ptr, ptr %this.addr.i23, align 8
  store ptr %this1.i24, ptr %this.addr.i33, align 8
  br label %_ZN4absl5MutexD2Ev.exit26

terminate.lpad.i25:                               ; No predecessors!
  %14 = landingpad { ptr, i32 }
          catch ptr null
  %15 = extractvalue { ptr, i32 } %14, 0
  call void @__clang_call_terminate(ptr %15) #27
  unreachable

_ZN4absl5MutexD2Ev.exit26:                        ; preds = %_ZN4absl5MutexD2Ev.exit
  call void @_ZN12_GLOBAL__N_130ScopedDisableBazelTestWarningsD2Ev(ptr noundef nonnull align 8 dereferenceable(32) %disable_bazel_test_warnings) #3
  ret void

ehcleanup:                                        ; preds = %_ZN4absl5MutexD2Ev.exit22, %lpad2
  store ptr %mu0, ptr %this.addr.i27, align 8
  %this1.i28 = load ptr, ptr %this.addr.i27, align 8
  store ptr %this1.i28, ptr %this.addr.i31, align 8
  br label %_ZN4absl5MutexD2Ev.exit30

terminate.lpad.i29:                               ; No predecessors!
  %16 = landingpad { ptr, i32 }
          catch ptr null
  %17 = extractvalue { ptr, i32 } %16, 0
  call void @__clang_call_terminate(ptr %17) #27
  unreachable

_ZN4absl5MutexD2Ev.exit30:                        ; preds = %ehcleanup
  br label %ehcleanup17

ehcleanup17:                                      ; preds = %_ZN4absl5MutexD2Ev.exit30, %lpad
  call void @_ZN12_GLOBAL__N_130ScopedDisableBazelTestWarningsD2Ev(ptr noundef nonnull align 8 dereferenceable(32) %disable_bazel_test_warnings) #3
  br label %eh.resume

eh.resume:                                        ; preds = %ehcleanup17
  %exn = load ptr, ptr %exn.slot, align 8
  %sel = load i32, ptr %ehselector.slot, align 4
  %lpad.val = insertvalue { ptr, i32 } poison, ptr %exn, 0
  %lpad.val18 = insertvalue { ptr, i32 } %lpad.val, i32 %sel, 1
  resume { ptr, i32 } %lpad.val18
}