; Function Attrs: mustprogress uwtable
define internal void @_ZN12_GLOBAL__N_139Mutex_DeadlockDetectorBazelWarning_Test8TestBodyEv(ptr nocapture nonnull readnone align 8 %this) unnamed_addr #3 align 2 personality ptr @__gxx_personality_v0 {
entry:
  %disable_bazel_test_warnings = alloca %"class.(anonymous namespace)::ScopedDisableBazelTestWarnings", align 8
  %mu0 = alloca %"class.absl::Mutex", align 8
  %mu1 = alloca %"class.absl::Mutex", align 8
  tail call void @_ZN4absl29SetMutexDeadlockDetectionModeENS_15OnDeadlockCycleE(i32 noundef 1)
  call void @_ZNSt7__cxx1112basic_stringIcSt11char_traitsIcESaIcEEC1Ev(ptr noundef nonnull align 8 dereferenceable(32) %disable_bazel_test_warnings) #34
  %call.i = call ptr @getenv(ptr noundef nonnull @_ZN12_GLOBAL__N_130ScopedDisableBazelTestWarnings8kVarNameE) #34
  %cmp.not.i = icmp eq ptr %call.i, null
  br i1 %cmp.not.i, label %_ZN12_GLOBAL__N_130ScopedDisableBazelTestWarningsC2Ev.exit, label %if.then.i

if.then.i:                                        ; preds = %entry
  %call3.i = invoke noundef nonnull align 8 dereferenceable(32) ptr @_ZNSt7__cxx1112basic_stringIcSt11char_traitsIcESaIcEEaSEPKc(ptr noundef nonnull align 8 dereferenceable(32) %disable_bazel_test_warnings, ptr noundef nonnull %call.i)
          to label %invoke.cont.i unwind label %lpad.i

invoke.cont.i:                                    ; preds = %if.then.i
  %call4.i = call i32 @unsetenv(ptr noundef nonnull @_ZN12_GLOBAL__N_130ScopedDisableBazelTestWarnings8kVarNameE) #34
  br label %_ZN12_GLOBAL__N_130ScopedDisableBazelTestWarningsC2Ev.exit

common.resume:                                    ; preds = %lpad4, %lpad.i
  %common.resume.op = phi { ptr, i32 } [ %0, %lpad.i ], [ %1, %lpad4 ]
  resume { ptr, i32 } %common.resume.op

lpad.i:                                           ; preds = %if.then.i
  %0 = landingpad { ptr, i32 }
          cleanup
  call void @_ZNSt7__cxx1112basic_stringIcSt11char_traitsIcESaIcEED1Ev(ptr noundef nonnull align 8 dereferenceable(32) %disable_bazel_test_warnings) #34
  br label %common.resume

_ZN12_GLOBAL__N_130ScopedDisableBazelTestWarningsC2Ev.exit: ; preds = %entry, %invoke.cont.i
  store i64 0, ptr %mu0, align 8
  store i64 0, ptr %mu1, align 8
  %call = invoke noundef zeroext i1 @_ZN4absl5Mutex7TryLockEv(ptr noundef nonnull align 8 dereferenceable(8) %mu0)
          to label %invoke.cont5 unwind label %lpad4

invoke.cont5:                                     ; preds = %_ZN12_GLOBAL__N_130ScopedDisableBazelTestWarningsC2Ev.exit
  invoke void @_ZN4absl5Mutex4LockEv(ptr noundef nonnull align 8 dereferenceable(8) %mu1)
          to label %invoke.cont6 unwind label %lpad4

invoke.cont6:                                     ; preds = %invoke.cont5
  br i1 %call, label %if.then, label %if.end

if.then:                                          ; preds = %invoke.cont6
  invoke void @_ZN4absl5Mutex6UnlockEv(ptr noundef nonnull align 8 dereferenceable(8) %mu0)
          to label %if.end unwind label %lpad4

lpad4:                                            ; preds = %invoke.cont15, %invoke.cont14, %invoke.cont13, %if.end12, %if.then10, %if.end, %if.then, %invoke.cont5, %_ZN12_GLOBAL__N_130ScopedDisableBazelTestWarningsC2Ev.exit
  %1 = landingpad { ptr, i32 }
          cleanup
  call fastcc void @_ZN12_GLOBAL__N_130ScopedDisableBazelTestWarningsD2Ev(ptr noundef nonnull align 8 dereferenceable(32) %disable_bazel_test_warnings) #34
  br label %common.resume

if.end:                                           ; preds = %if.then, %invoke.cont6
  %call9 = invoke noundef zeroext i1 @_ZN4absl5Mutex7TryLockEv(ptr noundef nonnull align 8 dereferenceable(8) %mu0)
          to label %invoke.cont8 unwind label %lpad4

invoke.cont8:                                     ; preds = %if.end
  br i1 %call9, label %if.then10, label %if.end12

if.then10:                                        ; preds = %invoke.cont8
  invoke void @_ZN4absl5Mutex6UnlockEv(ptr noundef nonnull align 8 dereferenceable(8) %mu0)
          to label %if.end12 unwind label %lpad4

if.end12:                                         ; preds = %if.then10, %invoke.cont8
  invoke void @_ZN4absl5Mutex4LockEv(ptr noundef nonnull align 8 dereferenceable(8) %mu0)
          to label %invoke.cont13 unwind label %lpad4

invoke.cont13:                                    ; preds = %if.end12
  invoke void @_ZN4absl5Mutex6UnlockEv(ptr noundef nonnull align 8 dereferenceable(8) %mu0)
          to label %invoke.cont14 unwind label %lpad4

invoke.cont14:                                    ; preds = %invoke.cont13
  invoke void @_ZN4absl5Mutex6UnlockEv(ptr noundef nonnull align 8 dereferenceable(8) %mu1)
          to label %invoke.cont15 unwind label %lpad4

invoke.cont15:                                    ; preds = %invoke.cont14
  invoke void @_ZN4absl29SetMutexDeadlockDetectionModeENS_15OnDeadlockCycleE(i32 noundef 2)
          to label %invoke.cont16 unwind label %lpad4

invoke.cont16:                                    ; preds = %invoke.cont15
  %call.i1 = call noundef zeroext i1 @_ZNKSt7__cxx1112basic_stringIcSt11char_traitsIcESaIcEE5emptyEv(ptr noundef nonnull align 8 dereferenceable(32) %disable_bazel_test_warnings) #34
  br i1 %call.i1, label %_ZN12_GLOBAL__N_130ScopedDisableBazelTestWarningsD2Ev.exit, label %if.then.i2

if.then.i2:                                       ; preds = %invoke.cont16
  %call3.i3 = call noundef ptr @_ZNKSt7__cxx1112basic_stringIcSt11char_traitsIcESaIcEE5c_strEv(ptr noundef nonnull align 8 dereferenceable(32) %disable_bazel_test_warnings) #34
  %call4.i4 = call i32 @setenv(ptr noundef nonnull @_ZN12_GLOBAL__N_130ScopedDisableBazelTestWarnings8kVarNameE, ptr noundef %call3.i3, i32 noundef 0) #34
  br label %_ZN12_GLOBAL__N_130ScopedDisableBazelTestWarningsD2Ev.exit

_ZN12_GLOBAL__N_130ScopedDisableBazelTestWarningsD2Ev.exit: ; preds = %invoke.cont16, %if.then.i2
  call void @_ZNSt7__cxx1112basic_stringIcSt11char_traitsIcESaIcEED1Ev(ptr noundef nonnull align 8 dereferenceable(32) %disable_bazel_test_warnings) #34
  ret void
}